target datalayout = "e-m:e-p270:32:32-p271:32:32-p272:64:64-i64:64-i128:128-f80:128-n8:16:32:64-S128"
target triple = "x86_64-pc-linux-gnu"

%struct.AVFormatContext = type { ptr, ptr, ptr, ptr, ptr, i32, i32, ptr, i32, ptr, i32, ptr, ptr, i64, i64, i64, i32, i32, i32, i64, i64, ptr, i32, i32, ptr, i32, i32, i32, i32, ptr, i64, i32, i32, %struct.AVIOInterruptCB, i32, i32, i32, i32, i64, i32, i32, i32, i32, i32, i32, i32, i32, i32, i32, i32, i32, i64, i32, i32, i32, i32, i32, ptr, ptr, ptr, ptr, i32, ptr, ptr, ptr, ptr, i32, ptr, ptr, i64, ptr, ptr, ptr, i64 }
%struct.AVIOInterruptCB = type { ptr, ptr }
%struct.FFOutputFormat = type { %struct.AVOutputFormat, i32, i32, ptr, ptr, ptr, ptr, ptr, ptr, ptr, ptr, ptr, ptr, ptr, ptr }
%struct.AVOutputFormat = type { ptr, ptr, ptr, ptr, i32, i32, i32, i32, ptr, ptr }
%struct.AVStream = type { ptr, i32, i32, ptr, ptr, %struct.AVRational, i64, i64, i64, i32, i32, %struct.AVRational, ptr, %struct.AVRational, %struct.AVPacket, i32, %struct.AVRational, i32 }
%struct.AVPacket = type { ptr, i64, i64, ptr, i32, i32, i32, ptr, i32, i64, i64, ptr, ptr, %struct.AVRational }
%struct.AVRational = type { i32, i32 }
%struct.AVCodecParameters = type { i32, i32, i32, ptr, i32, ptr, i32, i32, i64, i32, i32, i32, i32, i32, i32, %struct.AVRational, %struct.AVRational, i32, i32, i32, i32, i32, i32, i32, %struct.AVChannelLayout, i32, i32, i32, i32, i32, i32 }
%struct.AVChannelLayout = type { i32, i32, %union.anon.2, ptr }
%union.anon.2 = type { i64 }
%struct.FFStream = type { %struct.AVStream, ptr, i32, ptr, i32, ptr, i32, %struct.anon.1, i32, i32, %struct.FFFrac, ptr, ptr, i32, i32, i64, i64, i32, i32, i32, i64, i64, i64, i32, i64, i64, i64, i32, i32, [17 x i64], [17 x i8], [17 x i64], i64, i8, i8, %struct.AVRational, %struct.AVProbeData, ptr, i64, i32, i32, i32, ptr, i32, i32, i64, i64, ptr, %struct.AVRational }
%struct.anon.1 = type { ptr, i32 }
%struct.FFFrac = type { i64, i64, i64 }
%struct.AVProbeData = type { ptr, ptr, i32, ptr }

@.str.27 = private unnamed_addr constant [33 x i8] c"Invalid packet stream index: %d\0A\00", align 1
@.str.28 = private unnamed_addr constant [45 x i8] c"Received a packet for an attachment stream.\0A\00", align 1

; Function Attrs: inlinehint nounwind uwtable
define internal ptr @ffofmt(ptr noundef %0) #3 {
  %2 = alloca ptr, align 8
  store ptr %0, ptr %2, align 8, !tbaa !10
  %3 = load ptr, ptr %2, align 8, !tbaa !10
  ret ptr %3
}

; Function Attrs: nounwind uwtable
define internal i32 @check_bitstream(ptr noundef %0, ptr noundef %1, ptr noundef %2) #0 {
  %4 = alloca i32, align 4
  %5 = alloca ptr, align 8
  %6 = alloca ptr, align 8
  %7 = alloca ptr, align 8
  %8 = alloca i32, align 4
  %9 = alloca i32, align 4
  store ptr %0, ptr %5, align 8, !tbaa !14
  store ptr %1, ptr %6, align 8, !tbaa !53
  store ptr %2, ptr %7, align 8, !tbaa !128
  call void @llvm.lifetime.start.p0(i64 4, ptr %8) #11
  %10 = load ptr, ptr %5, align 8, !tbaa !14
  %11 = getelementptr inbounds nuw %struct.AVFormatContext, ptr %10, i32 0, i32 18
  %12 = load i32, ptr %11, align 8, !tbaa !104
  %13 = and i32 %12, 2097152
  %14 = icmp ne i32 %13, 0
  br i1 %14, label %16, label %15

15:                                               ; preds = %3
  store i32 1, ptr %4, align 4
  store i32 1, ptr %9, align 4
  br label %54

16:                                               ; preds = %3
  %17 = load ptr, ptr %5, align 8, !tbaa !14
  %18 = getelementptr inbounds nuw %struct.AVFormatContext, ptr %17, i32 0, i32 2
  %19 = load ptr, ptr %18, align 8, !tbaa !18
  %20 = call ptr @ffofmt(ptr noundef %19)
  %21 = getelementptr inbounds nuw %struct.FFOutputFormat, ptr %20, i32 0, i32 14
  %22 = load ptr, ptr %21, align 8, !tbaa !211
  %23 = icmp ne ptr %22, null
  br i1 %23, label %24, label %53

24:                                               ; preds = %16
  %25 = load ptr, ptr %6, align 8, !tbaa !53
  %26 = getelementptr inbounds nuw %struct.FFStream, ptr %25, i32 0, i32 4
  %27 = load i32, ptr %26, align 8, !tbaa !212
  %28 = icmp ne i32 %27, 0
  br i1 %28, label %52, label %29

29:                                               ; preds = %24
  %30 = load ptr, ptr %5, align 8, !tbaa !14
  %31 = getelementptr inbounds nuw %struct.AVFormatContext, ptr %30, i32 0, i32 2
  %32 = load ptr, ptr %31, align 8, !tbaa !18
  %33 = call ptr @ffofmt(ptr noundef %32)
  %34 = getelementptr inbounds nuw %struct.FFOutputFormat, ptr %33, i32 0, i32 14
  %35 = load ptr, ptr %34, align 8, !tbaa !211
  %36 = load ptr, ptr %5, align 8, !tbaa !14
  %37 = load ptr, ptr %6, align 8, !tbaa !53
  %38 = getelementptr inbounds nuw %struct.FFStream, ptr %37, i32 0, i32 0
  %39 = load ptr, ptr %7, align 8, !tbaa !128
  %40 = call i32 %35(ptr noundef %36, ptr noundef %38, ptr noundef %39)
  store i32 %40, ptr %8, align 4, !tbaa !16
  %41 = icmp slt i32 %40, 0
  br i1 %41, label %42, label %44

42:                                               ; preds = %29
  %43 = load i32, ptr %8, align 4, !tbaa !16
  store i32 %43, ptr %4, align 4
  store i32 1, ptr %9, align 4
  br label %54

44:                                               ; preds = %29
  %45 = load i32, ptr %8, align 4, !tbaa !16
  %46 = icmp eq i32 %45, 1
  br i1 %46, label %47, label %50

47:                                               ; preds = %44
  %48 = load ptr, ptr %6, align 8, !tbaa !53
  %49 = getelementptr inbounds nuw %struct.FFStream, ptr %48, i32 0, i32 4
  store i32 1, ptr %49, align 8, !tbaa !212
  br label %50

50:                                               ; preds = %47, %44
  br label %51

51:                                               ; preds = %50
  br label %52

52:                                               ; preds = %51, %24
  br label %53

53:                                               ; preds = %52, %16
  store i32 1, ptr %4, align 4
  store i32 1, ptr %9, align 4
  br label %54

54:                                               ; preds = %53, %42, %15
  call void @llvm.lifetime.end.p0(i64 4, ptr %8) #11
  %55 = load i32, ptr %4, align 4
  ret i32 %55
}

; Function Attrs: nounwind uwtable
define internal i32 @prepare_input_packet(ptr noundef %0, ptr noundef %1, ptr noundef %2) #0 {
  %4 = alloca i32, align 4
  %5 = alloca ptr, align 8
  %6 = alloca ptr, align 8
  %7 = alloca ptr, align 8
  %8 = alloca ptr, align 8
  %9 = alloca i32, align 4
  store ptr %0, ptr %5, align 8, !tbaa !14
  store ptr %1, ptr %6, align 8, !tbaa !51
  store ptr %2, ptr %7, align 8, !tbaa !128
  call void @llvm.lifetime.start.p0(i64 8, ptr %8) #11
  %10 = load ptr, ptr %6, align 8, !tbaa !51
  %11 = call ptr @ffstream(ptr noundef %10)
  store ptr %11, ptr %8, align 8, !tbaa !53
  %12 = load ptr, ptr %8, align 8, !tbaa !53
  %13 = getelementptr inbounds nuw %struct.FFStream, ptr %12, i32 0, i32 9
  %14 = load i32, ptr %13, align 4, !tbaa !96
  %15 = icmp ne i32 %14, 0
  br i1 %15, label %16, label %21

16:                                               ; preds = %3
  %17 = load ptr, ptr %7, align 8, !tbaa !128
  %18 = getelementptr inbounds nuw %struct.AVPacket, ptr %17, i32 0, i32 6
  %19 = load i32, ptr %18, align 8, !tbaa !143
  %20 = or i32 %19, 1
  store i32 %20, ptr %18, align 8, !tbaa !143
  br label %21

21:                                               ; preds = %16, %3
  %22 = load ptr, ptr %7, align 8, !tbaa !128
  %23 = getelementptr inbounds nuw %struct.AVPacket, ptr %22, i32 0, i32 3
  %24 = load ptr, ptr %23, align 8, !tbaa !164
  %25 = icmp ne ptr %24, null
  br i1 %25, label %36, label %26

26:                                               ; preds = %21
  %27 = load ptr, ptr %7, align 8, !tbaa !128
  %28 = getelementptr inbounds nuw %struct.AVPacket, ptr %27, i32 0, i32 8
  %29 = load i32, ptr %28, align 8, !tbaa !210
  %30 = icmp ne i32 %29, 0
  br i1 %30, label %36, label %31

31:                                               ; preds = %26
  %32 = load ptr, ptr %7, align 8, !tbaa !128
  %33 = getelementptr inbounds nuw %struct.AVPacket, ptr %32, i32 0, i32 0
  call void @av_buffer_unref(ptr noundef %33)
  %34 = load ptr, ptr %7, align 8, !tbaa !128
  %35 = call i32 @av_packet_make_refcounted(ptr noundef %34)
  store i32 %35, ptr %4, align 4
  store i32 1, ptr %9, align 4
  br label %37

36:                                               ; preds = %26, %21
  store i32 0, ptr %4, align 4
  store i32 1, ptr %9, align 4
  br label %37

37:                                               ; preds = %36, %31
  call void @llvm.lifetime.end.p0(i64 8, ptr %8) #11
  %38 = load i32, ptr %4, align 4
  ret i32 %38
}

; Function Attrs: alwaysinline nounwind uwtable
define internal ptr @ffstream(ptr noundef %0) #4 {
  %2 = alloca ptr, align 8
  store ptr %0, ptr %2, align 8, !tbaa !51
  %3 = load ptr, ptr %2, align 8, !tbaa !51
  ret ptr %3
}

; Function Attrs: nounwind uwtable
define internal i32 @check_packet(ptr noundef %0, ptr noundef %1) #0 {
  %3 = alloca i32, align 4
  %4 = alloca ptr, align 8
  %5 = alloca ptr, align 8
  store ptr %0, ptr %4, align 8, !tbaa !14
  store ptr %1, ptr %5, align 8, !tbaa !128
  %6 = load ptr, ptr %5, align 8, !tbaa !128
  %7 = getelementptr inbounds nuw %struct.AVPacket, ptr %6, i32 0, i32 5
  %8 = load i32, ptr %7, align 4, !tbaa !130
  %9 = icmp slt i32 %8, 0
  br i1 %9, label %18, label %10

10:                                               ; preds = %2
  %11 = load ptr, ptr %5, align 8, !tbaa !128
  %12 = getelementptr inbounds nuw %struct.AVPacket, ptr %11, i32 0, i32 5
  %13 = load i32, ptr %12, align 4, !tbaa !130
  %14 = load ptr, ptr %4, align 8, !tbaa !14
  %15 = getelementptr inbounds nuw %struct.AVFormatContext, ptr %14, i32 0, i32 6
  %16 = load i32, ptr %15, align 4, !tbaa !48
  %17 = icmp uge i32 %13, %16
  br i1 %17, label %18, label %23

18:                                               ; preds = %10, %2
  %19 = load ptr, ptr %4, align 8, !tbaa !14
  %20 = load ptr, ptr %5, align 8, !tbaa !128
  %21 = getelementptr inbounds nuw %struct.AVPacket, ptr %20, i32 0, i32 5
  %22 = load i32, ptr %21, align 4, !tbaa !130
  call void (ptr, i32, ptr, ...) @av_log(ptr noundef %19, i32 noundef 16, ptr noundef @.str.27, i32 noundef %22)
  store i32 -22, ptr %3, align 4
  br label %41

23:                                               ; preds = %10
  %24 = load ptr, ptr %4, align 8, !tbaa !14
  %25 = getelementptr inbounds nuw %struct.AVFormatContext, ptr %24, i32 0, i32 7
  %26 = load ptr, ptr %25, align 8, !tbaa !50
  %27 = load ptr, ptr %5, align 8, !tbaa !128
  %28 = getelementptr inbounds nuw %struct.AVPacket, ptr %27, i32 0, i32 5
  %29 = load i32, ptr %28, align 4, !tbaa !130
  %30 = sext i32 %29 to i64
  %31 = getelementptr inbounds ptr, ptr %26, i64 %30
  %32 = load ptr, ptr %31, align 8, !tbaa !51
  %33 = getelementptr inbounds nuw %struct.AVStream, ptr %32, i32 0, i32 3
  %34 = load ptr, ptr %33, align 8, !tbaa !55
  %35 = getelementptr inbounds nuw %struct.AVCodecParameters, ptr %34, i32 0, i32 0
  %36 = load i32, ptr %35, align 8, !tbaa !64
  %37 = icmp eq i32 %36, 4
  br i1 %37, label %38, label %40

38:                                               ; preds = %23
  %39 = load ptr, ptr %4, align 8, !tbaa !14
  call void (ptr, i32, ptr, ...) @av_log(ptr noundef %39, i32 noundef 16, ptr noundef @.str.28)
  store i32 -22, ptr %3, align 4
  br label %41

40:                                               ; preds = %23
  store i32 0, ptr %3, align 4
  br label %41

41:                                               ; preds = %40, %38, %18
  %42 = load i32, ptr %3, align 4
  ret i32 %42
}

; Function Attrs: nounwind uwtable
define internal i32 @write_packets_common(ptr noundef %0, ptr noundef %1, i32 noundef %2) #0 {
  %4 = alloca i32, align 4
  %5 = alloca ptr, align 8
  %6 = alloca ptr, align 8
  %7 = alloca i32, align 4
  %8 = alloca ptr, align 8
  %9 = alloca ptr, align 8
  %10 = alloca i32, align 4
  %11 = alloca i32, align 4
  store ptr %0, ptr %5, align 8, !tbaa !14
  store ptr %1, ptr %6, align 8, !tbaa !128
  store i32 %2, ptr %7, align 4, !tbaa !16
  call void @llvm.lifetime.start.p0(i64 8, ptr %8) #11
  call void @llvm.lifetime.start.p0(i64 8, ptr %9) #11
  call void @llvm.lifetime.start.p0(i64 4, ptr %10) #11
  %12 = load ptr, ptr %5, align 8, !tbaa !14
  %13 = load ptr, ptr %6, align 8, !tbaa !128
  %14 = call i32 @check_packet(ptr noundef %12, ptr noundef %13)
  store i32 %14, ptr %10, align 4, !tbaa !16
  %15 = load i32, ptr %10, align 4, !tbaa !16
  %16 = icmp slt i32 %15, 0
  br i1 %16, label %17, label %19

17:                                               ; preds = %3
  %18 = load i32, ptr %10, align 4, !tbaa !16
  store i32 %18, ptr %4, align 4
  store i32 1, ptr %11, align 4
  br label %65

19:                                               ; preds = %3
  %20 = load ptr, ptr %5, align 8, !tbaa !14
  %21 = getelementptr inbounds nuw %struct.AVFormatContext, ptr %20, i32 0, i32 7
  %22 = load ptr, ptr %21, align 8, !tbaa !50
  %23 = load ptr, ptr %6, align 8, !tbaa !128
  %24 = getelementptr inbounds nuw %struct.AVPacket, ptr %23, i32 0, i32 5
  %25 = load i32, ptr %24, align 4, !tbaa !130
  %26 = sext i32 %25 to i64
  %27 = getelementptr inbounds ptr, ptr %22, i64 %26
  %28 = load ptr, ptr %27, align 8, !tbaa !51
  store ptr %28, ptr %8, align 8, !tbaa !51
  %29 = load ptr, ptr %8, align 8, !tbaa !51
  %30 = call ptr @ffstream(ptr noundef %29)
  store ptr %30, ptr %9, align 8, !tbaa !53
  %31 = load ptr, ptr %5, align 8, !tbaa !14
  %32 = load ptr, ptr %8, align 8, !tbaa !51
  %33 = load ptr, ptr %6, align 8, !tbaa !128
  %34 = call i32 @prepare_input_packet(ptr noundef %31, ptr noundef %32, ptr noundef %33)
  store i32 %34, ptr %10, align 4, !tbaa !16
  %35 = load i32, ptr %10, align 4, !tbaa !16
  %36 = icmp slt i32 %35, 0
  br i1 %36, label %37, label %39

37:                                               ; preds = %19
  %38 = load i32, ptr %10, align 4, !tbaa !16
  store i32 %38, ptr %4, align 4
  store i32 1, ptr %11, align 4
  br label %65

39:                                               ; preds = %19
  %40 = load ptr, ptr %5, align 8, !tbaa !14
  %41 = load ptr, ptr %9, align 8, !tbaa !53
  %42 = load ptr, ptr %6, align 8, !tbaa !128
  %43 = call i32 @check_bitstream(ptr noundef %40, ptr noundef %41, ptr noundef %42)
  store i32 %43, ptr %10, align 4, !tbaa !16
  %44 = load i32, ptr %10, align 4, !tbaa !16
  %45 = icmp slt i32 %44, 0
  br i1 %45, label %46, label %48

46:                                               ; preds = %39
  %47 = load i32, ptr %10, align 4, !tbaa !16
  store i32 %47, ptr %4, align 4
  store i32 1, ptr %11, align 4
  br label %65

48:                                               ; preds = %39
  %49 = load ptr, ptr %9, align 8, !tbaa !53
  %50 = getelementptr inbounds nuw %struct.FFStream, ptr %49, i32 0, i32 3
  %51 = load ptr, ptr %50, align 8, !tbaa !166
  %52 = icmp ne ptr %51, null
  br i1 %52, label %53, label %59

53:                                               ; preds = %48
  %54 = load ptr, ptr %5, align 8, !tbaa !14
  %55 = load ptr, ptr %8, align 8, !tbaa !51
  %56 = load ptr, ptr %6, align 8, !tbaa !128
  %57 = load i32, ptr %7, align 4, !tbaa !16
  %58 = call i32 @write_packets_from_bsfs(ptr noundef %54, ptr noundef %55, ptr noundef %56, i32 noundef %57)
  store i32 %58, ptr %4, align 4
  store i32 1, ptr %11, align 4
  br label %65

59:                                               ; preds = %48
  %60 = load ptr, ptr %5, align 8, !tbaa !14
  %61 = load ptr, ptr %8, align 8, !tbaa !51
  %62 = load ptr, ptr %6, align 8, !tbaa !128
  %63 = load i32, ptr %7, align 4, !tbaa !16
  %64 = call i32 @write_packet_common(ptr noundef %60, ptr noundef %61, ptr noundef %62, i32 noundef %63)
  store i32 %64, ptr %4, align 4
  store i32 1, ptr %11, align 4
  br label %65

65:                                               ; preds = %59, %53, %46, %37, %17
  call void @llvm.lifetime.end.p0(i64 4, ptr %10) #11
  call void @llvm.lifetime.end.p0(i64 8, ptr %9) #11
  call void @llvm.lifetime.end.p0(i64 8, ptr %8) #11
  %66 = load i32, ptr %4, align 4
  ret i32 %66
}