; Function Attrs: nounwind uwtable
define internal fastcc i32 @write_packets_common(ptr noundef %0, ptr noundef %1, i32 noundef range(i32 0, 2) %2) unnamed_addr #0 {
  %4 = getelementptr i8, ptr %1, i64 36
  %.val = load i32, ptr %4, align 4, !tbaa !115
  %5 = icmp slt i32 %.val, 0
  br i1 %5, label %9, label %6

6:                                                ; preds = %3
  %7 = getelementptr inbounds nuw i8, ptr %0, i64 44
  %8 = load i32, ptr %7, align 4, !tbaa !35
  %.not.i = icmp ult i32 %.val, %8
  br i1 %.not.i, label %10, label %9

9:                                                ; preds = %6, %3
  tail call void (ptr, i32, ptr, ...) @av_log(ptr noundef %0, i32 noundef 16, ptr noundef nonnull @.str.27, i32 noundef %.val) #13
  br label %check_bitstream.exit

10:                                               ; preds = %6
  %11 = getelementptr inbounds nuw i8, ptr %0, i64 48
  %12 = load ptr, ptr %11, align 8, !tbaa !37
  %13 = zext nneg i32 %.val to i64
  %14 = getelementptr inbounds nuw ptr, ptr %12, i64 %13
  %15 = load ptr, ptr %14, align 8, !tbaa !38
  %16 = getelementptr inbounds nuw i8, ptr %15, i64 16
  %17 = load ptr, ptr %16, align 8, !tbaa !40
  %18 = load i32, ptr %17, align 8, !tbaa !48
  %19 = icmp eq i32 %18, 4
  br i1 %19, label %20, label %check_packet.exit

20:                                               ; preds = %10
  tail call void (ptr, i32, ptr, ...) @av_log(ptr noundef nonnull %0, i32 noundef 16, ptr noundef nonnull @.str.28) #13
  br label %check_bitstream.exit

check_packet.exit:                                ; preds = %10
  %21 = getelementptr i8, ptr %15, i64 284
  %.val29 = load i32, ptr %21, align 4, !tbaa !76
  %.not.i30 = icmp eq i32 %.val29, 0
  br i1 %.not.i30, label %26, label %22

22:                                               ; preds = %check_packet.exit
  %23 = getelementptr inbounds nuw i8, ptr %1, i64 40
  %24 = load i32, ptr %23, align 8, !tbaa !123
  %25 = or i32 %24, 1
  store i32 %25, ptr %23, align 8, !tbaa !123
  br label %26

26:                                               ; preds = %22, %check_packet.exit
  %27 = getelementptr inbounds nuw i8, ptr %1, i64 24
  %28 = load ptr, ptr %27, align 8, !tbaa !144
  %.not7.i = icmp eq ptr %28, null
  br i1 %.not7.i, label %29, label %prepare_input_packet.exit.thread

29:                                               ; preds = %26
  %30 = getelementptr inbounds nuw i8, ptr %1, i64 56
  %31 = load i32, ptr %30, align 8, !tbaa !146
  %.not8.i = icmp eq i32 %31, 0
  br i1 %.not8.i, label %prepare_input_packet.exit, label %prepare_input_packet.exit.thread

prepare_input_packet.exit:                        ; preds = %29
  tail call void @av_buffer_unref(ptr noundef nonnull %1) #13
  %32 = tail call i32 @av_packet_make_refcounted(ptr noundef nonnull %1) #13
  %33 = icmp slt i32 %32, 0
  br i1 %33, label %check_bitstream.exit, label %prepare_input_packet.exit.thread

prepare_input_packet.exit.thread:                 ; preds = %26, %29, %prepare_input_packet.exit
  %34 = getelementptr inbounds nuw i8, ptr %0, i64 128
  %35 = load i32, ptr %34, align 8, !tbaa !93
  %36 = and i32 %35, 2097152
  %.not.i32 = icmp eq i32 %36, 0
  br i1 %.not.i32, label %51, label %37

37:                                               ; preds = %prepare_input_packet.exit.thread
  %38 = getelementptr inbounds nuw i8, ptr %0, i64 16
  %39 = load ptr, ptr %38, align 8, !tbaa !9
  %40 = getelementptr inbounds nuw i8, ptr %39, i64 160
  %41 = load ptr, ptr %40, align 8, !tbaa !147
  %.not11.i = icmp eq ptr %41, null
  br i1 %.not11.i, label %51, label %42

42:                                               ; preds = %37
  %43 = getelementptr inbounds nuw i8, ptr %15, i64 240
  %44 = load i32, ptr %43, align 8, !tbaa !148
  %.not12.i = icmp eq i32 %44, 0
  br i1 %.not12.i, label %45, label %51

45:                                               ; preds = %42
  %46 = tail call i32 %41(ptr noundef nonnull %0, ptr noundef nonnull %15, ptr noundef nonnull %1) #13
  %47 = icmp slt i32 %46, 0
  br i1 %47, label %check_bitstream.exit, label %48

48:                                               ; preds = %45
  %49 = icmp eq i32 %46, 1
  br i1 %49, label %50, label %51

50:                                               ; preds = %48
  store i32 1, ptr %43, align 8, !tbaa !148
  br label %51

51:                                               ; preds = %prepare_input_packet.exit.thread, %42, %48, %50, %37
  %52 = getelementptr inbounds nuw i8, ptr %15, i64 232
  %53 = load ptr, ptr %52, align 8, !tbaa !149
  %.not = icmp eq ptr %53, null
  br i1 %.not, label %56, label %54

54:                                               ; preds = %51
  %55 = tail call fastcc i32 @write_packets_from_bsfs(ptr noundef nonnull %0, ptr noundef nonnull %15, ptr noundef nonnull %1, i32 noundef %2)
  br label %check_bitstream.exit

56:                                               ; preds = %51
  %57 = tail call fastcc i32 @write_packet_common(ptr noundef nonnull %0, ptr noundef nonnull %15, ptr noundef nonnull %1, i32 noundef %2)
  br label %check_bitstream.exit

check_bitstream.exit:                             ; preds = %20, %9, %45, %prepare_input_packet.exit, %56, %54
  %.0 = phi i32 [ %55, %54 ], [ %57, %56 ], [ %32, %prepare_input_packet.exit ], [ %46, %45 ], [ -22, %9 ], [ -22, %20 ]
  ret i32 %.0
}